; Function Attrs: nounwind uwtable
define zeroext range(i8 0, 2) i8 @l___private_Lean_Data_Json_Printer_0__Lean_Json_needEscape_go(ptr noundef readonly captures(none) %0, ptr noundef %1) local_unnamed_addr #0 {
  %3 = getelementptr i8, ptr %0, i64 8
  %4 = getelementptr inbounds nuw i8, ptr %0, i64 32
  br label %lean_dec.exit31

lean_dec.exit31:                                  ; preds = %lean_dec.exit31.backedge, %2
  %.024 = phi ptr [ %1, %2 ], [ %.024.be, %lean_dec.exit31.backedge ]
  %.val = load i64, ptr %3, align 8, !tbaa !12
  %5 = shl i64 %.val, 1
  %6 = add i64 %5, -1
  %7 = inttoptr i64 %6 to ptr
  %8 = ptrtoint ptr %.024 to i64
  %9 = and i64 %8, 1
  %.not = icmp eq i64 %9, 0
  br i1 %.not, label %lean_dec.exit32.thread, label %lean_dec.exit32, !prof !14

lean_dec.exit32:                                  ; preds = %lean_dec.exit31
  %.not55 = icmp ult ptr %.024, %7
  br i1 %.not55, label %lean_dec.exit30.thread, label %.loopexit

lean_dec.exit32.thread:                           ; preds = %lean_dec.exit31
  %10 = tail call zeroext i1 @lean_nat_big_lt(ptr noundef %.024, ptr noundef nonnull %7) #3
  %.val.i = load i32, ptr %.024, align 4, !tbaa !8
  br i1 %10, label %.thread46, label %.thread

.thread:                                          ; preds = %lean_dec.exit32.thread
  %11 = icmp sgt i32 %.val.i, 1
  br i1 %11, label %12, label %14, !prof !11

12:                                               ; preds = %.thread
  %13 = add nsw i32 %.val.i, -1
  store i32 %13, ptr %.024, align 4, !tbaa !8
  br label %.loopexit

14:                                               ; preds = %.thread
  %.not.i33 = icmp eq i32 %.val.i, 0
  br i1 %.not.i33, label %.loopexit, label %15

15:                                               ; preds = %14
  tail call void @lean_dec_ref_cold(ptr noundef nonnull %.024) #3
  br label %.loopexit

.thread46:                                        ; preds = %lean_dec.exit32.thread
  %16 = icmp sgt i32 %.val.i, 0
  br i1 %16, label %17, label %19, !prof !11

17:                                               ; preds = %.thread46
  %18 = add nuw i32 %.val.i, 1
  store i32 %18, ptr %.024, align 4, !tbaa !8
  br label %lean_dec.exit30

19:                                               ; preds = %.thread46
  %.not.i43 = icmp eq i32 %.val.i, 0
  br i1 %.not.i43, label %lean_dec.exit30, label %20

20:                                               ; preds = %19
  tail call void @lean_inc_ref_cold(ptr noundef nonnull %.024) #3
  br label %lean_dec.exit30

lean_dec.exit30:                                  ; preds = %17, %19, %20
  %21 = lshr exact i64 %8, 1
  %22 = getelementptr inbounds nuw i8, ptr %4, i64 %21
  %23 = load i8, ptr %22, align 1, !tbaa !15
  %24 = zext i8 %23 to i64
  %25 = load ptr, ptr @l___private_Lean_Data_Json_Printer_0__Lean_Json_escapeTable, align 8, !tbaa !4
  %26 = getelementptr inbounds nuw i8, ptr %25, i64 24
  %27 = getelementptr inbounds nuw i8, ptr %26, i64 %24
  %28 = load i8, ptr %27, align 1, !tbaa !15
  %.not56 = icmp eq i8 %28, 0
  br i1 %.not56, label %52, label %37

lean_dec.exit30.thread:                           ; preds = %lean_dec.exit32
  %29 = lshr i64 %8, 1
  %30 = getelementptr inbounds nuw i8, ptr %4, i64 %29
  %31 = load i8, ptr %30, align 1, !tbaa !15
  %32 = zext i8 %31 to i64
  %33 = load ptr, ptr @l___private_Lean_Data_Json_Printer_0__Lean_Json_escapeTable, align 8, !tbaa !4
  %34 = getelementptr inbounds nuw i8, ptr %33, i64 24
  %35 = getelementptr inbounds nuw i8, ptr %34, i64 %32
  %36 = load i8, ptr %35, align 1, !tbaa !15
  %.not5665 = icmp eq i8 %36, 0
  br i1 %.not5665, label %.thread67, label %.loopexit

37:                                               ; preds = %lean_dec.exit30
  %38 = load i32, ptr %.024, align 4, !tbaa !8
  %39 = icmp sgt i32 %38, 1
  br i1 %39, label %40, label %42, !prof !11

40:                                               ; preds = %37
  %41 = add nsw i32 %38, -1
  store i32 %41, ptr %.024, align 4, !tbaa !8
  br label %.loopexit

42:                                               ; preds = %37
  %.not.i37 = icmp eq i32 %38, 0
  br i1 %.not.i37, label %.loopexit, label %43

43:                                               ; preds = %42
  tail call void @lean_dec_ref_cold(ptr noundef nonnull %.024) #3
  br label %.loopexit

.thread67:                                        ; preds = %lean_dec.exit30.thread
  %44 = add nuw i64 %29, 1
  %45 = icmp sgt i64 %44, -1
  br i1 %45, label %46, label %50, !prof !11

46:                                               ; preds = %.thread67
  %47 = shl nuw i64 %44, 1
  %48 = or disjoint i64 %47, 1
  %49 = inttoptr i64 %48 to ptr
  br label %lean_dec.exit31.backedge

lean_dec.exit31.backedge:                         ; preds = %46, %50, %56, %58, %59
  %.024.be = phi ptr [ %53, %56 ], [ %53, %58 ], [ %53, %59 ], [ %51, %50 ], [ %49, %46 ]
  br label %lean_dec.exit31

50:                                               ; preds = %.thread67
  %51 = tail call ptr @lean_big_usize_to_nat(i64 noundef range(i64 0, -1) %44) #3
  br label %lean_dec.exit31.backedge

52:                                               ; preds = %lean_dec.exit30
  %53 = tail call ptr @lean_nat_big_add(ptr noundef nonnull %.024, ptr noundef nonnull inttoptr (i64 3 to ptr)) #3
  %54 = load i32, ptr %.024, align 4, !tbaa !8
  %55 = icmp sgt i32 %54, 1
  br i1 %55, label %56, label %58, !prof !11

56:                                               ; preds = %52
  %57 = add nsw i32 %54, -1
  store i32 %57, ptr %.024, align 4, !tbaa !8
  br label %lean_dec.exit31.backedge

58:                                               ; preds = %52
  %.not.i39 = icmp eq i32 %54, 0
  br i1 %.not.i39, label %lean_dec.exit31.backedge, label %59

59:                                               ; preds = %58
  tail call void @lean_dec_ref_cold(ptr noundef nonnull %.024) #3
  br label %lean_dec.exit31.backedge

.loopexit:                                        ; preds = %lean_dec.exit30.thread, %lean_dec.exit32, %15, %14, %12, %43, %42, %40
  %.1.ph = phi i8 [ 1, %40 ], [ 1, %42 ], [ 1, %43 ], [ 0, %12 ], [ 0, %14 ], [ 0, %15 ], [ 1, %lean_dec.exit30.thread ], [ 0, %lean_dec.exit32 ]
  ret i8 %.1.ph
}